
ledkey_elf:     file format elf32-littlearm

Disassembly of section .text:

00000000 <_start>:
   0:	e3a00453 	mov	r0, #1392508928	; 0x53000000
   4:	e3a01000 	mov	r1, #0	; 0x0
   8:	e5801000 	str	r1, [r0]
   c:	e3a0da01 	mov	sp, #4096	; 0x1000
  10:	eb000000 	bl	18 <main>

00000014 <main_loop>:
  14:	eafffffe 	b	14 <main_loop>

00000018 <main>:
  18:	e1a0c00d 	mov	ip, sp
  1c:	e92dd800 	stmdb	sp!, {fp, ip, lr, pc}
  20:	e24cb004 	sub	fp, ip, #4	; 0x4
  24:	e24dd004 	sub	sp, sp, #4	; 0x4
  28:	e3a02456 	mov	r2, #1442840576	; 0x56000000
  2c:	e2822050 	add	r2, r2, #80	; 0x50
  30:	e3a03456 	mov	r3, #1442840576	; 0x56000000
  34:	e2833050 	add	r3, r3, #80	; 0x50
  38:	e5933000 	ldr	r3, [r3]
  3c:	e3c33c03 	bic	r3, r3, #768	; 0x300
  40:	e3c33003 	bic	r3, r3, #3	; 0x3
  44:	e5823000 	str	r3, [r2]
  48:	e3a02456 	mov	r2, #1442840576	; 0x56000000
  4c:	e2822050 	add	r2, r2, #80	; 0x50
  50:	e3a03456 	mov	r3, #1442840576	; 0x56000000
  54:	e2833050 	add	r3, r3, #80	; 0x50
  58:	e5933000 	ldr	r3, [r3]
  5c:	e3833c01 	orr	r3, r3, #256	; 0x100
  60:	e5823000 	str	r3, [r2]
  64:	e3a03456 	mov	r3, #1442840576	; 0x56000000
  68:	e2833054 	add	r3, r3, #84	; 0x54
  6c:	e5933000 	ldr	r3, [r3]
  70:	e50b3010 	str	r3, [fp, #-16]
  74:	e51b3010 	ldr	r3, [fp, #-16]
  78:	e2033001 	and	r3, r3, #1	; 0x1
  7c:	e3530000 	cmp	r3, #0	; 0x0
  80:	0a000007 	beq	a4 <main+0x8c>
  84:	e3a02456 	mov	r2, #1442840576	; 0x56000000
  88:	e2822054 	add	r2, r2, #84	; 0x54
  8c:	e3a03456 	mov	r3, #1442840576	; 0x56000000
  90:	e2833054 	add	r3, r3, #84	; 0x54
  94:	e5933000 	ldr	r3, [r3]
  98:	e3833010 	orr	r3, r3, #16	; 0x10
  9c:	e5823000 	str	r3, [r2]
  a0:	eaffffef 	b	64 <main+0x4c>
  a4:	e3a02456 	mov	r2, #1442840576	; 0x56000000
  a8:	e2822054 	add	r2, r2, #84	; 0x54
  ac:	e3a03456 	mov	r3, #1442840576	; 0x56000000
  b0:	e2833054 	add	r3, r3, #84	; 0x54
  b4:	e5933000 	ldr	r3, [r3]
  b8:	e3c33010 	bic	r3, r3, #16	; 0x10
  bc:	e5823000 	str	r3, [r2]
  c0:	eaffffe7 	b	64 <main+0x4c>