
ledkey_elf:     file format elf32-littlearm

Disassembly of section .text:

00000000 <_start>:
   0:	e3a00453 	mov	r0, #1392508928	; 0x53000000
   4:	e3a01000 	mov	r1, #0	; 0x0
   8:	e5801000 	str	r1, [r0]
   c:	e3a0da01 	mov	sp, #4096	; 0x1000
  10:	eb000000 	bl	18 <main>

00000014 <main_loop>:
  14:	eafffffe 	b	14 <main_loop>

00000018 <main>:
  18:	e1a0c00d 	mov	ip, sp
  1c:	e92dd800 	stmdb	sp!, {fp, ip, lr, pc}
  20:	e24cb004 	sub	fp, ip, #4	; 0x4
  24:	e24dd004 	sub	sp, sp, #4	; 0x4
  28:	e3a02456 	mov	r2, #1442840576	; 0x56000000
  2c:	e2822050 	add	r2, r2, #80	; 0x50
  30:	e3a03456 	mov	r3, #1442840576	; 0x56000000
  34:	e2833050 	add	r3, r3, #80	; 0x50
  38:	e5933000 	ldr	r3, [r3]
  3c:	e3c33c03 	bic	r3, r3, #768	; 0x300
  40:	e3c33003 	bic	r3, r3, #3	; 0x3
  44:	e5823000 	str	r3, [r2]
  48:	e3a02456 	mov	r2, #1442840576	; 0x56000000
  4c:	e2822050 	add	r2, r2, #80	; 0x50
  50:	e3a03456 	mov	r3, #1442840576	; 0x56000000
  54:	e2833050 	add	r3, r3, #80	; 0x50
  58:	e5933000 	ldr	r3, [r3]
  5c:	e3833c01 	orr	r3, r3, #256	; 0x100
  60:	e5823000 	str	r3, [r2]
  64:	e3a03456 	mov	r3, #1442840576	; 0x56000000
  68:	e2833054 	add	r3, r3, #84	; 0x54
  6c:	e5933000 	ldr	r3, [r3]
  70:	e50b3010 	str	r3, [fp, #-16]
  74:	e51b3010 	ldr	r3, [fp, #-16]
  78:	e2033001 	and	r3, r3, #1	; 0x1
  7c:	e3530000 	cmp	r3, #0	; 0x0
  80:	0a000007 	beq	a4 <main+0x8c>
  84:	e3a02456 	mov	r2, #1442840576	; 0x56000000
  88:	e2822054 	add	r2, r2, #84	; 0x54
  8c:	e3a03456 	mov	r3, #1442840576	; 0x56000000
  90:	e2833054 	add	r3, r3, #84	; 0x54
  94:	e5933000 	ldr	r3, [r3]
  98:	e3833010 	orr	r3, r3, #16	; 0x10
  9c:	e5823000 	str	r3, [r2]
  a0:	eaffffef 	b	64 <main+0x4c>
  a4:	e3a02456 	mov	r2, #1442840576	; 0x56000000
  a8:	e2822054 	add	r2, r2, #84	; 0x54
  ac:	e3a03456 	mov	r3, #1442840576	; 0x56000000
  b0:	e2833054 	add	r3, r3, #84	; 0x54
  b4:	e5933000 	ldr	r3, [r3]
  b8:	e3c33010 	bic	r3, r3, #16	; 0x10
  bc:	e5823000 	str	r3, [r2]
  c0:	eaffffe7 	b	64 <main+0x4c>
Disassembly of section .comment:

00000000 <.comment>:
   0:	43434700 	cmpmi	r3, #0	; 0x0
   4:	4728203a 	undefined
   8:	2029554e 	eorcs	r5, r9, lr, asr #10
   c:	2e342e33 	mrccs	14, 1, r2, cr4, cr3, {1}
  10:	Address 0x10 is out of bounds.

Disassembly of section .debug_aranges:

00000000 <.debug_aranges>:
   0:	0000001c 	andeq	r0, r0, ip, lsl r0
   4:	00000002 	andeq	r0, r0, r2
   8:	00040000 	andeq	r0, r4, r0
	...
  14:	00000018 	andeq	r0, r0, r8, lsl r0
	...
  20:	0000001c 	andeq	r0, r0, ip, lsl r0
  24:	00520002 	subeqs	r0, r2, r2
  28:	00040000 	andeq	r0, r4, r0
  2c:	00000000 	andeq	r0, r0, r0
  30:	00000018 	andeq	r0, r0, r8, lsl r0
  34:	000000ac 	andeq	r0, r0, ip, lsr #1
	...
Disassembly of section .debug_pubnames:

00000000 <.debug_pubnames>:
   0:	00000017 	andeq	r0, r0, r7, lsl r0
   4:	00520002 	subeqs	r0, r2, r2
   8:	00a50000 	adceq	r0, r5, r0
   c:	00510000 	subeqs	r0, r1, r0
  10:	616d0000 	cmnvs	sp, r0
  14:	00006e69 	andeq	r6, r0, r9, ror #28
  18:	Address 0x18 is out of bounds.

Disassembly of section .debug_info:

00000000 <.debug_info>:
   0:	0000004e 	andeq	r0, r0, lr, asr #32
   4:	00000002 	andeq	r0, r0, r2
   8:	01040000 	tsteq	r4, r0
	...
  14:	00000018 	andeq	r0, r0, r8, lsl r0
  18:	74696e69 	strvcbt	r6, [r9], #-3689
  1c:	2f00532e 	swics	0x0000532e
  20:	656d6f68 	strvsb	r6, [sp, #-3944]!
  24:	6a79632f 	bvs	1e58ce8 <__bss_end__+0x1e50c24>
  28:	726f772f 	rsbvc	r7, pc, #12320768	; 0xbc0000
  2c:	6170736b 	cmnvs	r0, fp, ror #6
  30:	6c2f6563 	cfstr32vs	mvfx6, [pc], #-396
  34:	696a6f75 	stmvsdb	sl!, {r0, r2, r4, r5, r6, r8, r9, sl, fp, sp, lr}^
  38:	30343432 	eorccs	r3, r4, r2, lsr r4
  3c:	64656c2f 	strvsbt	r6, [r5], #-3119
  40:	0079656b 	rsbeqs	r6, r9, fp, ror #10
  44:	20554e47 	subcss	r4, r5, r7, asr #28
  48:	32205341 	eorcc	r5, r0, #67108865	; 0x4000001
  4c:	0035312e 	eoreqs	r3, r5, lr, lsr #2
  50:	00a18001 	adceq	r8, r1, r1
  54:	00020000 	andeq	r0, r2, r0
  58:	00000014 	andeq	r0, r0, r4, lsl r0
  5c:	00380104 	eoreqs	r0, r8, r4, lsl #2
  60:	00c40000 	sbceq	r0, r4, r0
  64:	00180000 	andeqs	r0, r8, r0
  68:	4e470000 	cdpmi	0, 4, cr0, cr7, cr0, {0}
  6c:	20432055 	subcs	r2, r3, r5, asr r0
  70:	2e342e33 	mrccs	14, 1, r2, cr4, cr3, {1}
  74:	6d010035 	stcvs	0, cr0, [r1, #-212]
  78:	2e6e6961 	cdpcs	9, 6, cr6, cr14, cr1, {3}
  7c:	682f0063 	stmvsda	pc!, {r0, r1, r5, r6}
  80:	2f656d6f 	swics	0x00656d6f
  84:	2f6a7963 	swics	0x006a7963
  88:	6b726f77 	blvs	1c9be6c <__bss_end__+0x1c93da8>
  8c:	63617073 	cmnvs	r1, #115	; 0x73
  90:	756c2f65 	strvcb	r2, [ip, #-3941]!
  94:	32696a6f 	rsbcc	r6, r9, #454656	; 0x6f000
  98:	2f303434 	swics	0x00303434
  9c:	6b64656c 	blvs	1919654 <__bss_end__+0x1911590>
  a0:	02007965 	andeq	r7, r0, #1654784	; 0x194000
  a4:	00000088 	andeq	r0, r0, r8, lsl #1
  a8:	69616d01 	stmvsdb	r1!, {r0, r8, sl, fp, sp, lr}^
  ac:	1001006e 	andne	r0, r1, lr, rrx
  b0:	00000088 	andeq	r0, r0, r8, lsl #1
  b4:	00000018 	andeq	r0, r0, r8, lsl r0
  b8:	000000c4 	andeq	r0, r0, r4, asr #1
  bc:	64035b01 	strvs	r5, [r3], #-2817
  c0:	c0000000 	andgt	r0, r0, r0
  c4:	04000000 	streq	r0, [r0]
  c8:	44667067 	strmibt	r7, [r6], #-103
  cc:	01007461 	tsteq	r0, r1, ror #8
  d0:	00008f16 	andeq	r8, r0, r6, lsl pc
  d4:	70910200 	addvcs	r0, r1, r0, lsl #4
  d8:	69050000 	stmvsdb	r5, {}
  dc:	0400746e 	streq	r7, [r0], #-1134
  e0:	6f6c0505 	swivs	0x006c0505
  e4:	7520676e 	strvc	r6, [r0, #-1902]!
  e8:	6769736e 	strvsb	r7, [r9, -lr, ror #6]!
  ec:	2064656e 	rsbcs	r6, r4, lr, ror #10
  f0:	00746e69 	rsbeqs	r6, r4, r9, ror #28
  f4:	Address 0xf4 is out of bounds.

Disassembly of section .debug_abbrev:

00000000 <.debug_abbrev>:
   0:	10001101 	andne	r1, r0, r1, lsl #2
   4:	12011106 	andne	r1, r1, #-2147483647	; 0x80000001
   8:	1b080301 	blne	200c14 <__bss_end__+0x1f8b50>
   c:	13082508 	tstne	r8, #33554432	; 0x2000000
  10:	00000005 	andeq	r0, r0, r5
  14:	10011101 	andne	r1, r1, r1, lsl #2
  18:	11011206 	tstne	r1, r6, lsl #4
  1c:	13082501 	tstne	r8, #4194304	; 0x400000
  20:	1b08030b 	blne	200c54 <__bss_end__+0x1f8b90>
  24:	02000008 	andeq	r0, r0, #8	; 0x8
  28:	1301012e 	tstne	r1, #-2147483637	; 0x8000000b
  2c:	08030c3f 	stmeqda	r3, {r0, r1, r2, r3, r4, r5, sl, fp}
  30:	0b3b0b3a 	bleq	ec2d20 <__bss_end__+0xebac5c>
  34:	01111349 	tsteq	r1, r9, asr #6
  38:	0a400112 	beq	1000488 <__bss_end__+0xff83c4>
  3c:	0b030000 	bleq	c0044 <__bss_end__+0xb7f80>
  40:	12011101 	andne	r1, r1, #1073741824	; 0x40000000
  44:	04000001 	streq	r0, [r0], #-1
  48:	08030034 	stmeqda	r3, {r2, r4, r5}
  4c:	0b3b0b3a 	bleq	ec2d3c <__bss_end__+0xebac78>
  50:	0a021349 	beq	84d7c <__bss_end__+0x7ccb8>
  54:	24050000 	strcs	r0, [r5]
  58:	0b080300 	bleq	200c60 <__bss_end__+0x1f8b9c>
  5c:	000b3e0b 	andeq	r3, fp, fp, lsl #28
	...
Disassembly of section .debug_line:

00000000 <.debug_line>:
   0:	00000034 	andeq	r0, r0, r4, lsr r0
   4:	001a0002 	andeqs	r0, sl, r2
   8:	01020000 	tsteq	r2, r0
   c:	000a0efb 	streqd	r0, [sl], -fp
  10:	01010101 	tsteq	r1, r1, lsl #2
  14:	01000000 	tsteq	r0, r0
  18:	696e6900 	stmvsdb	lr!, {r8, fp, sp, lr}^
  1c:	00532e74 	subeqs	r2, r3, r4, ror lr
  20:	00000000 	andeq	r0, r0, r0
  24:	00020500 	andeq	r0, r2, r0, lsl #10
  28:	03000000 	tsteq	r0, #0	; 0x0
  2c:	2c2c010c 	stfcss	f0, [ip], #-48
  30:	022d2d2d 	eoreq	r2, sp, #2880	; 0xb40
  34:	01010002 	tsteq	r1, r2
  38:	00000035 	andeq	r0, r0, r5, lsr r0
  3c:	001a0002 	andeqs	r0, sl, r2
  40:	01020000 	tsteq	r2, r0
  44:	000a0efb 	streqd	r0, [sl], -fp
  48:	01010101 	tsteq	r1, r1, lsl #2
  4c:	01000000 	tsteq	r0, r0
  50:	69616d00 	stmvsdb	r1!, {r8, sl, fp, sp, lr}^
  54:	00632e6e 	rsbeq	r2, r3, lr, ror #28
  58:	00000000 	andeq	r0, r0, r0
  5c:	18020500 	stmneda	r2, {r8, sl}
  60:	03000000 	tsteq	r0, #0	; 0x0
  64:	f080010f 	addnv	r0, r0, pc, lsl #2
  68:	f18080d7 	ldrnvd	r8, [r0, r7]
  6c:	01001002 	tsteq	r0, r2
  70:	Address 0x70 is out of bounds.

Disassembly of section .debug_frame:

00000000 <.debug_frame>:
   0:	0000000c 	andeq	r0, r0, ip
   4:	ffffffff 	swinv	0x00ffffff
   8:	7c010001 	stcvc	0, cr0, [r1], {1}
   c:	000d0c0e 	andeq	r0, sp, lr, lsl #24
  10:	0000001c 	andeq	r0, r0, ip, lsl r0
  14:	00000000 	andeq	r0, r0, r0
  18:	00000018 	andeq	r0, r0, r8, lsl r0
  1c:	000000ac 	andeq	r0, r0, ip, lsr #1
  20:	440c0d44 	strmi	r0, [ip], #-3396
  24:	038d028e 	orreq	r0, sp, #-536870904	; 0xe0000008
  28:	0c44048b 	cfstrdeq	mvd0, [r4], {139}
  2c:	0000040b 	andeq	r0, r0, fp, lsl #8
